; ModuleID = '36/157.c'
source_filename = "36/157.c"
target datalayout = "e-m:e-p270:32:32-p271:32:32-p272:64:64-i64:64-f80:128-n8:16:32:64-S128"
target triple = "x86_64-pc-linux-gnu"

@.str = private unnamed_addr constant [6 x i8] c"%s %s\00", align 1
@.str.1 = private unnamed_addr constant [3 x i8] c"NO\00", align 1
@.str.2 = private unnamed_addr constant [4 x i8] c"YES\00", align 1

; Function Attrs: noinline nounwind uwtable
define dso_local void @main() #0 {
  %1 = alloca [100 x i8], align 16
  %2 = alloca [100 x i8], align 16
  %3 = alloca i32, align 4
  %4 = alloca [26 x i32], align 16
  %5 = alloca [26 x i32], align 16
  %6 = alloca i32, align 4
  %7 = bitcast [26 x i32]* %4 to i8*
  call void @llvm.memset.p0i8.i64(i8* align 16 %7, i8 0, i64 104, i1 false)
  %8 = bitcast [26 x i32]* %5 to i8*
  call void @llvm.memset.p0i8.i64(i8* align 16 %8, i8 0, i64 104, i1 false)
  store i32 0, i32* %6, align 4
  %9 = getelementptr inbounds [100 x i8], [100 x i8]* %1, i64 0, i64 0
  %10 = getelementptr inbounds [100 x i8], [100 x i8]* %2, i64 0, i64 0
  %11 = call i32 (i8*, ...) @__isoc99_scanf(i8* getelementptr inbounds ([6 x i8], [6 x i8]* @.str, i64 0, i64 0), i8* %9, i8* %10)
  %12 = getelementptr inbounds [100 x i8], [100 x i8]* %1, i64 0, i64 0
  %13 = call i64 @strlen(i8* %12) #4
  %14 = getelementptr inbounds [100 x i8], [100 x i8]* %2, i64 0, i64 0
  %15 = call i64 @strlen(i8* %14) #4
  %16 = icmp ne i64 %13, %15
  br i1 %16, label %17, label %19

17:                                               ; preds = %0
  %18 = call i32 (i8*, ...) @printf(i8* getelementptr inbounds ([3 x i8], [3 x i8]* @.str.1, i64 0, i64 0))
  br label %79

19:                                               ; preds = %0
  store i32 0, i32* %3, align 4
  br label %20

20:                                               ; preds = %47, %19
  %21 = load i32, i32* %3, align 4
  %22 = zext i32 %21 to i64
  %23 = getelementptr inbounds [100 x i8], [100 x i8]* %1, i64 0, i64 0
  %24 = call i64 @strlen(i8* %23) #4
  %25 = icmp ult i64 %22, %24
  br i1 %25, label %26, label %50

26:                                               ; preds = %20
  %27 = load i32, i32* %3, align 4
  %28 = zext i32 %27 to i64
  %29 = getelementptr inbounds [100 x i8], [100 x i8]* %1, i64 0, i64 %28
  %30 = load i8, i8* %29, align 1
  %31 = sext i8 %30 to i32
  %32 = sub nsw i32 %31, 97
  %33 = sext i32 %32 to i64
  %34 = getelementptr inbounds [26 x i32], [26 x i32]* %4, i64 0, i64 %33
  %35 = load i32, i32* %34, align 4
  %36 = add i32 %35, 1
  store i32 %36, i32* %34, align 4
  %37 = load i32, i32* %3, align 4
  %38 = zext i32 %37 to i64
  %39 = getelementptr inbounds [100 x i8], [100 x i8]* %2, i64 0, i64 %38
  %40 = load i8, i8* %39, align 1
  %41 = sext i8 %40 to i32
  %42 = sub nsw i32 %41, 97
  %43 = sext i32 %42 to i64
  %44 = getelementptr inbounds [26 x i32], [26 x i32]* %5, i64 0, i64 %43
  %45 = load i32, i32* %44, align 4
  %46 = add i32 %45, 1
  store i32 %46, i32* %44, align 4
  br label %47

47:                                               ; preds = %26
  %48 = load i32, i32* %3, align 4
  %49 = add i32 %48, 1
  store i32 %49, i32* %3, align 4
  br label %20

50:                                               ; preds = %20
  store i32 0, i32* %3, align 4
  br label %51

51:                                               ; preds = %68, %50
  %52 = load i32, i32* %3, align 4
  %53 = icmp ult i32 %52, 26
  br i1 %53, label %54, label %71

54:                                               ; preds = %51
  %55 = load i32, i32* %3, align 4
  %56 = zext i32 %55 to i64
  %57 = getelementptr inbounds [26 x i32], [26 x i32]* %4, i64 0, i64 %56
  %58 = load i32, i32* %57, align 4
  %59 = load i32, i32* %3, align 4
  %60 = zext i32 %59 to i64
  %61 = getelementptr inbounds [26 x i32], [26 x i32]* %5, i64 0, i64 %60
  %62 = load i32, i32* %61, align 4
  %63 = icmp eq i32 %58, %62
  br i1 %63, label %64, label %67

64:                                               ; preds = %54
  %65 = load i32, i32* %6, align 4
  %66 = add i32 %65, 1
  store i32 %66, i32* %6, align 4
  br label %67

67:                                               ; preds = %64, %54
  br label %68

68:                                               ; preds = %67
  %69 = load i32, i32* %3, align 4
  %70 = add i32 %69, 1
  store i32 %70, i32* %3, align 4
  br label %51

71:                                               ; preds = %51
  %72 = load i32, i32* %6, align 4
  %73 = icmp eq i32 %72, 26
  br i1 %73, label %74, label %76

74:                                               ; preds = %71
  %75 = call i32 (i8*, ...) @printf(i8* getelementptr inbounds ([4 x i8], [4 x i8]* @.str.2, i64 0, i64 0))
  br label %78

76:                                               ; preds = %71
  %77 = call i32 (i8*, ...) @printf(i8* getelementptr inbounds ([3 x i8], [3 x i8]* @.str.1, i64 0, i64 0))
  br label %78

78:                                               ; preds = %76, %74
  br label %79

79:                                               ; preds = %78, %17
  ret void
}

; Function Attrs: argmemonly nounwind willreturn
declare void @llvm.memset.p0i8.i64(i8* nocapture writeonly, i8, i64, i1 immarg) #1

declare dso_local i32 @__isoc99_scanf(i8*, ...) #2

; Function Attrs: nounwind readonly
declare dso_local i64 @strlen(i8*) #3

declare dso_local i32 @printf(i8*, ...) #2


!llvm.module.flags = !{!0}
!llvm.ident = !{!1}

!0 = !{i32 1, !"wchar_size", i32 4}
!1 = !{!"clang version 10.0.0-4ubuntu1 "}
